target datalayout = "e-m:e-p270:32:32-p271:32:32-p272:64:64-i64:64-i128:128-f80:128-n8:16:32:64-S128"
target triple = "x86_64-pc-linux-gnu"

%"class.gmx::FirstOrderPressureCoupling" = type { %"class.gmx::ISimulatorElement", %"class.gmx::ICheckpointHelperClient", i32, float, i32, i32, %"class.gmx::MultiDimArray", [3 x [3 x float]], double, double, i64, i32, ptr, ptr, ptr, ptr, ptr, ptr, %"class.std::__cxx11::basic_string" }
%"class.gmx::ISimulatorElement" = type { ptr }
%"class.gmx::ICheckpointHelperClient" = type { ptr }
%"class.gmx::MultiDimArray" = type { %"struct.std::array", %"class.gmx::basic_mdspan" }
%"struct.std::array" = type { [9 x float] }
%"class.gmx::basic_mdspan" = type { [8 x i8], ptr }
%"class.std::__cxx11::basic_string" = type { %"struct.std::__cxx11::basic_string<char>::_Alloc_hider", i64, %union.anon }
%"struct.std::__cxx11::basic_string<char>::_Alloc_hider" = type { ptr }
%union.anon = type { i64, [8 x i8] }

; Function Attrs: mustprogress nounwind uwtable
define noundef float @_ZN3gmx26FirstOrderPressureCoupling27conservedEnergyContributionEl(ptr noundef nonnull align 8 dereferenceable(240) %0, i64 noundef %1) #1 align 2 {
  %3 = alloca float, align 4
  %4 = alloca ptr, align 8
  %5 = alloca i64, align 8
  store ptr %0, ptr %4, align 8, !tbaa !4
  store i64 %1, ptr %5, align 8, !tbaa !9
  %6 = load ptr, ptr %4, align 8
  %7 = load i64, ptr %5, align 8, !tbaa !9
  %8 = getelementptr inbounds nuw %"class.gmx::FirstOrderPressureCoupling", ptr %6, i32 0, i32 10
  %9 = load i64, ptr %8, align 8, !tbaa !193
  %10 = icmp eq i64 %7, %9
  br i1 %10, label %11, label %19

11:                                               ; preds = %2
  %12 = getelementptr inbounds nuw %"class.gmx::FirstOrderPressureCoupling", ptr %6, i32 0, i32 11
  %13 = load i32, ptr %12, align 8, !tbaa !284
  %14 = icmp eq i32 %13, 0
  br i1 %14, label %15, label %19

15:                                               ; preds = %11
  %16 = getelementptr inbounds nuw %"class.gmx::FirstOrderPressureCoupling", ptr %6, i32 0, i32 9
  %17 = load double, ptr %16, align 8, !tbaa !189
  %18 = fptrunc double %17 to float
  store float %18, ptr %3, align 4
  br label %23

19:                                               ; preds = %11, %2
  %20 = getelementptr inbounds nuw %"class.gmx::FirstOrderPressureCoupling", ptr %6, i32 0, i32 8
  %21 = load double, ptr %20, align 8, !tbaa !188
  %22 = fptrunc double %21 to float
  store float %22, ptr %3, align 4
  br label %23

23:                                               ; preds = %19, %15
  %24 = load float, ptr %3, align 4
  ret float %24
}