; Function Attrs: mustprogress nofree norecurse nosync nounwind willreturn memory(argmem: read) uwtable
define noundef float @_ZN3gmx26FirstOrderPressureCoupling27conservedEnergyContributionEl(ptr noundef nonnull readonly align 8 captures(none) dereferenceable(240) %0, i64 noundef %1) local_unnamed_addr #14 align 2 {
  %3 = getelementptr inbounds nuw i8, ptr %0, i64 144
  %4 = load i64, ptr %3, align 8, !tbaa !240
  %5 = icmp eq i64 %1, %4
  %6 = getelementptr inbounds nuw i8, ptr %0, i64 152
  %7 = load i32, ptr %6, align 8
  %8 = icmp eq i32 %7, 0
  %or.cond = select i1 %5, i1 %8, i1 false
  %.0.in.in.v = select i1 %or.cond, i64 136, i64 128
  %.0.in.in = getelementptr inbounds nuw i8, ptr %0, i64 %.0.in.in.v
  %.0.in = load double, ptr %.0.in.in, align 8, !tbaa !244
  %.0 = fptrunc double %.0.in to float
  ret float %.0
}